; Function Attrs: mustprogress uwtable
define void @_ZN9grpc_core14HealthProducer6OrphanEv(ptr noundef nonnull align 8 dereferenceable(168) %this) unnamed_addr #3 align 2 personality ptr @__gxx_personality_v0 {
entry:
  %0 = load atomic i8, ptr getelementptr inbounds (%"class.grpc_core::TraceFlag", ptr @_ZN9grpc_core30grpc_health_check_client_traceE, i64 0, i32 2, i32 0, i32 0) monotonic, align 8
  %1 = and i8 %0, 1
  %tobool.i.i.i.not = icmp eq i8 %1, 0
  br i1 %tobool.i.i.i.not, label %if.end, label %if.then

if.then:                                          ; preds = %entry
  tail call void (ptr, i32, i32, ptr, ...) @gpr_log(ptr noundef nonnull @.str.2, i32 noundef 366, i32 noundef 1, ptr noundef nonnull @.str.10, ptr noundef nonnull %this)
  br label %if.end

if.end:                                           ; preds = %if.then, %entry
  %mu_ = getelementptr inbounds i8, ptr %this, i64 40
  tail call void @_ZN4absl12lts_202308025Mutex4LockEv(ptr noundef nonnull align 8 dereferenceable(8) %mu_)
  %health_checkers_ = getelementptr inbounds i8, ptr %this, i64 72
  %_M_parent.i.i.i.i = getelementptr inbounds i8, ptr %this, i64 88
  %2 = load ptr, ptr %_M_parent.i.i.i.i, align 8
  invoke void @_ZNSt8_Rb_treeINSt7__cxx1112basic_stringIcSt11char_traitsIcESaIcEEESt4pairIKS5_St10unique_ptrIN9grpc_core14HealthProducer13HealthCheckerENS9_16OrphanableDeleteEEESt10_Select1stISE_ESt4lessIS5_ESaISE_EE8_M_eraseEPSt13_Rb_tree_nodeISE_E(ptr noundef nonnull align 8 dereferenceable(48) %health_checkers_, ptr noundef %2)
          to label %_ZNSt3mapINSt7__cxx1112basic_stringIcSt11char_traitsIcESaIcEEESt10unique_ptrIN9grpc_core14HealthProducer13HealthCheckerENS7_16OrphanableDeleteEESt4lessIS5_ESaISt4pairIKS5_SB_EEE5clearEv.exit unwind label %terminate.lpad.i.i

terminate.lpad.i.i:                               ; preds = %if.end
  %3 = landingpad { ptr, i32 }
          catch ptr null
  %4 = extractvalue { ptr, i32 } %3, 0
  tail call void @__clang_call_terminate(ptr %4) #22
  unreachable

_ZNSt3mapINSt7__cxx1112basic_stringIcSt11char_traitsIcESaIcEEESt10unique_ptrIN9grpc_core14HealthProducer13HealthCheckerENS7_16OrphanableDeleteEESt4lessIS5_ESaISt4pairIKS5_SB_EEE5clearEv.exit: ; preds = %if.end
  %add.ptr.i.i = getelementptr inbounds i8, ptr %this, i64 80
  store ptr null, ptr %_M_parent.i.i.i.i, align 8
  %_M_left.i.i.i = getelementptr inbounds i8, ptr %this, i64 96
  store ptr %add.ptr.i.i, ptr %_M_left.i.i.i, align 8
  %_M_right.i.i.i = getelementptr inbounds i8, ptr %this, i64 104
  store ptr %add.ptr.i.i, ptr %_M_right.i.i.i, align 8
  %_M_node_count.i.i.i = getelementptr inbounds i8, ptr %this, i64 112
  store i64 0, ptr %_M_node_count.i.i.i, align 8
  invoke void @_ZN4absl12lts_202308025Mutex6UnlockEv(ptr noundef nonnull align 8 dereferenceable(8) %mu_)
          to label %_ZN4absl12lts_202308029MutexLockD2Ev.exit unwind label %terminate.lpad.i

terminate.lpad.i:                                 ; preds = %_ZNSt3mapINSt7__cxx1112basic_stringIcSt11char_traitsIcESaIcEEESt10unique_ptrIN9grpc_core14HealthProducer13HealthCheckerENS7_16OrphanableDeleteEESt4lessIS5_ESaISt4pairIKS5_SB_EEE5clearEv.exit
  %5 = landingpad { ptr, i32 }
          catch ptr null
  %6 = extractvalue { ptr, i32 } %5, 0
  tail call void @__clang_call_terminate(ptr %6) #22
  unreachable

_ZN4absl12lts_202308029MutexLockD2Ev.exit:        ; preds = %_ZNSt3mapINSt7__cxx1112basic_stringIcSt11char_traitsIcESaIcEEESt10unique_ptrIN9grpc_core14HealthProducer13HealthCheckerENS7_16OrphanableDeleteEESt4lessIS5_ESaISt4pairIKS5_SB_EEE5clearEv.exit
  %subchannel_ = getelementptr inbounds i8, ptr %this, i64 16
  %7 = load ptr, ptr %subchannel_, align 8
  %connectivity_watcher_ = getelementptr inbounds i8, ptr %this, i64 24
  %8 = load ptr, ptr %connectivity_watcher_, align 8
  tail call void @_ZN9grpc_core10Subchannel28CancelConnectivityStateWatchEPNS0_33ConnectivityStateWatcherInterfaceE(ptr noundef nonnull align 8 dereferenceable(928) %7, ptr noundef %8)
  %9 = load ptr, ptr %subchannel_, align 8
  tail call void @_ZN9grpc_core10Subchannel18RemoveDataProducerEPNS0_21DataProducerInterfaceE(ptr noundef nonnull align 8 dereferenceable(928) %9, ptr noundef nonnull %this)
  ret void
}